target datalayout = "e-m:e-p270:32:32-p271:32:32-p272:64:64-i64:64-i128:128-f80:128-n8:16:32:64-S128"
target triple = "x86_64-pc-linux-gnu"

%struct.asn1_string_st = type { i32, i32, ptr, i64 }

@.str = private unnamed_addr constant [126 x i8] c"generated/home/dtcxzyw/WorkSpace/Projects/compilers/llvm-opt-benchmark/bench/libquic/libquic/boringssl/crypto/asn1/a_bitstr.c\00", align 1

; Function Attrs: nounwind uwtable
define hidden i32 @ASN1_BIT_STRING_set_bit(ptr noundef %0, i32 noundef %1, i32 noundef %2) #0 {
  %4 = alloca i32, align 4
  %5 = alloca ptr, align 8
  %6 = alloca i32, align 4
  %7 = alloca i32, align 4
  %8 = alloca i32, align 4
  %9 = alloca i32, align 4
  %10 = alloca i32, align 4
  %11 = alloca ptr, align 8
  %12 = alloca i32, align 4
  store ptr %0, ptr %5, align 8, !tbaa !6
  store i32 %1, ptr %6, align 4, !tbaa !13
  store i32 %2, ptr %7, align 4, !tbaa !13
  call void @llvm.lifetime.start.p0(i64 4, ptr %8) #7
  call void @llvm.lifetime.start.p0(i64 4, ptr %9) #7
  call void @llvm.lifetime.start.p0(i64 4, ptr %10) #7
  call void @llvm.lifetime.start.p0(i64 8, ptr %11) #7
  %13 = load i32, ptr %6, align 4, !tbaa !13
  %14 = sdiv i32 %13, 8
  store i32 %14, ptr %8, align 4, !tbaa !13
  %15 = load i32, ptr %6, align 4, !tbaa !13
  %16 = and i32 %15, 7
  %17 = sub nsw i32 7, %16
  %18 = shl i32 1, %17
  store i32 %18, ptr %9, align 4, !tbaa !13
  %19 = load i32, ptr %9, align 4, !tbaa !13
  %20 = xor i32 %19, -1
  store i32 %20, ptr %10, align 4, !tbaa !13
  %21 = load i32, ptr %7, align 4, !tbaa !13
  %22 = icmp ne i32 %21, 0
  br i1 %22, label %24, label %23

23:                                               ; preds = %3
  store i32 0, ptr %9, align 4, !tbaa !13
  br label %24

24:                                               ; preds = %23, %3
  %25 = load ptr, ptr %5, align 8, !tbaa !6
  %26 = icmp eq ptr %25, null
  br i1 %26, label %27, label %28

27:                                               ; preds = %24
  store i32 0, ptr %4, align 4
  store i32 1, ptr %12, align 4
  br label %150

28:                                               ; preds = %24
  %29 = load ptr, ptr %5, align 8, !tbaa !6
  %30 = getelementptr inbounds nuw %struct.asn1_string_st, ptr %29, i32 0, i32 3
  %31 = load i64, ptr %30, align 8, !tbaa !20
  %32 = and i64 %31, -16
  store i64 %32, ptr %30, align 8, !tbaa !20
  %33 = load ptr, ptr %5, align 8, !tbaa !6
  %34 = getelementptr inbounds nuw %struct.asn1_string_st, ptr %33, i32 0, i32 0
  %35 = load i32, ptr %34, align 8, !tbaa !17
  %36 = load i32, ptr %8, align 4, !tbaa !13
  %37 = add nsw i32 %36, 1
  %38 = icmp slt i32 %35, %37
  br i1 %38, label %44, label %39

39:                                               ; preds = %28
  %40 = load ptr, ptr %5, align 8, !tbaa !6
  %41 = getelementptr inbounds nuw %struct.asn1_string_st, ptr %40, i32 0, i32 2
  %42 = load ptr, ptr %41, align 8, !tbaa !21
  %43 = icmp eq ptr %42, null
  br i1 %43, label %44, label %104

44:                                               ; preds = %39, %28
  %45 = load i32, ptr %7, align 4, !tbaa !13
  %46 = icmp ne i32 %45, 0
  br i1 %46, label %48, label %47

47:                                               ; preds = %44
  store i32 1, ptr %4, align 4
  store i32 1, ptr %12, align 4
  br label %150

48:                                               ; preds = %44
  %49 = load ptr, ptr %5, align 8, !tbaa !6
  %50 = getelementptr inbounds nuw %struct.asn1_string_st, ptr %49, i32 0, i32 2
  %51 = load ptr, ptr %50, align 8, !tbaa !21
  %52 = icmp eq ptr %51, null
  br i1 %52, label %53, label %58

53:                                               ; preds = %48
  %54 = load i32, ptr %8, align 4, !tbaa !13
  %55 = add nsw i32 %54, 1
  %56 = sext i32 %55 to i64
  %57 = call noalias ptr @malloc(i64 noundef %56) #8
  store ptr %57, ptr %11, align 8, !tbaa !11
  br label %70

58:                                               ; preds = %48
  %59 = load ptr, ptr %5, align 8, !tbaa !6
  %60 = getelementptr inbounds nuw %struct.asn1_string_st, ptr %59, i32 0, i32 2
  %61 = load ptr, ptr %60, align 8, !tbaa !21
  %62 = load ptr, ptr %5, align 8, !tbaa !6
  %63 = getelementptr inbounds nuw %struct.asn1_string_st, ptr %62, i32 0, i32 0
  %64 = load i32, ptr %63, align 8, !tbaa !17
  %65 = sext i32 %64 to i64
  %66 = load i32, ptr %8, align 4, !tbaa !13
  %67 = add nsw i32 %66, 1
  %68 = sext i32 %67 to i64
  %69 = call ptr @OPENSSL_realloc_clean(ptr noundef %61, i64 noundef %65, i64 noundef %68)
  store ptr %69, ptr %11, align 8, !tbaa !11
  br label %70

70:                                               ; preds = %58, %53
  %71 = load ptr, ptr %11, align 8, !tbaa !11
  %72 = icmp eq ptr %71, null
  br i1 %72, label %73, label %74

73:                                               ; preds = %70
  call void @ERR_put_error(i32 noundef 12, i32 noundef 0, i32 noundef 65, ptr noundef @.str, i32 noundef 214)
  store i32 0, ptr %4, align 4
  store i32 1, ptr %12, align 4
  br label %150

74:                                               ; preds = %70
  %75 = load i32, ptr %8, align 4, !tbaa !13
  %76 = add nsw i32 %75, 1
  %77 = load ptr, ptr %5, align 8, !tbaa !6
  %78 = getelementptr inbounds nuw %struct.asn1_string_st, ptr %77, i32 0, i32 0
  %79 = load i32, ptr %78, align 8, !tbaa !17
  %80 = sub nsw i32 %76, %79
  %81 = icmp sgt i32 %80, 0
  br i1 %81, label %82, label %96

82:                                               ; preds = %74
  %83 = load ptr, ptr %11, align 8, !tbaa !11
  %84 = load ptr, ptr %5, align 8, !tbaa !6
  %85 = getelementptr inbounds nuw %struct.asn1_string_st, ptr %84, i32 0, i32 0
  %86 = load i32, ptr %85, align 8, !tbaa !17
  %87 = sext i32 %86 to i64
  %88 = getelementptr inbounds i8, ptr %83, i64 %87
  %89 = load i32, ptr %8, align 4, !tbaa !13
  %90 = add nsw i32 %89, 1
  %91 = load ptr, ptr %5, align 8, !tbaa !6
  %92 = getelementptr inbounds nuw %struct.asn1_string_st, ptr %91, i32 0, i32 0
  %93 = load i32, ptr %92, align 8, !tbaa !17
  %94 = sub nsw i32 %90, %93
  %95 = sext i32 %94 to i64
  call void @llvm.memset.p0.i64(ptr align 1 %88, i8 0, i64 %95, i1 false)
  br label %96

96:                                               ; preds = %82, %74
  %97 = load ptr, ptr %11, align 8, !tbaa !11
  %98 = load ptr, ptr %5, align 8, !tbaa !6
  %99 = getelementptr inbounds nuw %struct.asn1_string_st, ptr %98, i32 0, i32 2
  store ptr %97, ptr %99, align 8, !tbaa !21
  %100 = load i32, ptr %8, align 4, !tbaa !13
  %101 = add nsw i32 %100, 1
  %102 = load ptr, ptr %5, align 8, !tbaa !6
  %103 = getelementptr inbounds nuw %struct.asn1_string_st, ptr %102, i32 0, i32 0
  store i32 %101, ptr %103, align 8, !tbaa !17
  br label %104

104:                                              ; preds = %96, %39
  %105 = load ptr, ptr %5, align 8, !tbaa !6
  %106 = getelementptr inbounds nuw %struct.asn1_string_st, ptr %105, i32 0, i32 2
  %107 = load ptr, ptr %106, align 8, !tbaa !21
  %108 = load i32, ptr %8, align 4, !tbaa !13
  %109 = sext i32 %108 to i64
  %110 = getelementptr inbounds i8, ptr %107, i64 %109
  %111 = load i8, ptr %110, align 1, !tbaa !22
  %112 = zext i8 %111 to i32
  %113 = load i32, ptr %10, align 4, !tbaa !13
  %114 = and i32 %112, %113
  %115 = load i32, ptr %9, align 4, !tbaa !13
  %116 = or i32 %114, %115
  %117 = trunc i32 %116 to i8
  %118 = load ptr, ptr %5, align 8, !tbaa !6
  %119 = getelementptr inbounds nuw %struct.asn1_string_st, ptr %118, i32 0, i32 2
  %120 = load ptr, ptr %119, align 8, !tbaa !21
  %121 = load i32, ptr %8, align 4, !tbaa !13
  %122 = sext i32 %121 to i64
  %123 = getelementptr inbounds i8, ptr %120, i64 %122
  store i8 %117, ptr %123, align 1, !tbaa !22
  br label %124

124:                                              ; preds = %144, %104
  %125 = load ptr, ptr %5, align 8, !tbaa !6
  %126 = getelementptr inbounds nuw %struct.asn1_string_st, ptr %125, i32 0, i32 0
  %127 = load i32, ptr %126, align 8, !tbaa !17
  %128 = icmp sgt i32 %127, 0
  br i1 %128, label %129, label %142

129:                                              ; preds = %124
  %130 = load ptr, ptr %5, align 8, !tbaa !6
  %131 = getelementptr inbounds nuw %struct.asn1_string_st, ptr %130, i32 0, i32 2
  %132 = load ptr, ptr %131, align 8, !tbaa !21
  %133 = load ptr, ptr %5, align 8, !tbaa !6
  %134 = getelementptr inbounds nuw %struct.asn1_string_st, ptr %133, i32 0, i32 0
  %135 = load i32, ptr %134, align 8, !tbaa !17
  %136 = sub nsw i32 %135, 1
  %137 = sext i32 %136 to i64
  %138 = getelementptr inbounds i8, ptr %132, i64 %137
  %139 = load i8, ptr %138, align 1, !tbaa !22
  %140 = zext i8 %139 to i32
  %141 = icmp eq i32 %140, 0
  br label %142

142:                                              ; preds = %129, %124
  %143 = phi i1 [ false, %124 ], [ %141, %129 ]
  br i1 %143, label %144, label %149

144:                                              ; preds = %142
  %145 = load ptr, ptr %5, align 8, !tbaa !6
  %146 = getelementptr inbounds nuw %struct.asn1_string_st, ptr %145, i32 0, i32 0
  %147 = load i32, ptr %146, align 8, !tbaa !17
  %148 = add nsw i32 %147, -1
  store i32 %148, ptr %146, align 8, !tbaa !17
  br label %124, !llvm.loop !29

149:                                              ; preds = %142
  store i32 1, ptr %4, align 4
  store i32 1, ptr %12, align 4
  br label %150

150:                                              ; preds = %149, %73, %47, %27
  call void @llvm.lifetime.end.p0(i64 8, ptr %11) #7
  call void @llvm.lifetime.end.p0(i64 4, ptr %10) #7
  call void @llvm.lifetime.end.p0(i64 4, ptr %9) #7
  call void @llvm.lifetime.end.p0(i64 4, ptr %8) #7
  %151 = load i32, ptr %4, align 4
  ret i32 %151
}