; Function Attrs: nounwind uwtable
define hidden range(i32 0, 2) i32 @ASN1_BIT_STRING_set_bit(ptr noundef captures(address_is_null) %0, i32 noundef %1, i32 noundef %2) local_unnamed_addr #0 {
  %4 = sdiv i32 %1, 8
  %5 = and i32 %1, 7
  %6 = xor i32 %5, 7
  %7 = shl nuw nsw i32 1, %6
  %8 = xor i32 %7, -1
  %.not = icmp eq i32 %2, 0
  %spec.select = select i1 %.not, i32 0, i32 %7
  %9 = icmp eq ptr %0, null
  br i1 %9, label %.critedge, label %10

10:                                               ; preds = %3
  %11 = getelementptr inbounds nuw i8, ptr %0, i64 16
  %12 = load i64, ptr %11, align 8, !tbaa !14
  %13 = and i64 %12, -16
  store i64 %13, ptr %11, align 8, !tbaa !14
  %14 = load i32, ptr %0, align 8, !tbaa !6
  %15 = add nsw i32 %4, 1
  %.not42 = icmp sgt i32 %14, %4
  br i1 %.not42, label %16, label %20

16:                                               ; preds = %10
  %17 = getelementptr inbounds nuw i8, ptr %0, i64 8
  %18 = load ptr, ptr %17, align 8, !tbaa !15
  %19 = icmp eq ptr %18, null
  br i1 %19, label %20, label %44

20:                                               ; preds = %16, %10
  br i1 %.not, label %.critedge, label %21

21:                                               ; preds = %20
  %22 = getelementptr inbounds nuw i8, ptr %0, i64 8
  %23 = load ptr, ptr %22, align 8, !tbaa !15
  %24 = icmp eq ptr %23, null
  br i1 %24, label %25, label %28

25:                                               ; preds = %21
  %26 = sext i32 %15 to i64
  %27 = tail call noalias ptr @malloc(i64 noundef %26) #10
  br label %32

28:                                               ; preds = %21
  %29 = sext i32 %14 to i64
  %30 = sext i32 %15 to i64
  %31 = tail call ptr @OPENSSL_realloc_clean(ptr noundef nonnull %23, i64 noundef %29, i64 noundef %30) #9
  br label %32

32:                                               ; preds = %28, %25
  %.0 = phi ptr [ %27, %25 ], [ %31, %28 ]
  %33 = icmp eq ptr %.0, null
  br i1 %33, label %34, label %35

34:                                               ; preds = %32
  tail call void @ERR_put_error(i32 noundef 12, i32 noundef 0, i32 noundef 65, ptr noundef nonnull @.str, i32 noundef 214) #9
  br label %.critedge

35:                                               ; preds = %32
  %36 = load i32, ptr %0, align 8, !tbaa !6
  %37 = sub nsw i32 %15, %36
  %38 = icmp sgt i32 %37, 0
  br i1 %38, label %39, label %43

39:                                               ; preds = %35
  %40 = sext i32 %36 to i64
  %41 = getelementptr inbounds i8, ptr %.0, i64 %40
  %42 = zext nneg i32 %37 to i64
  tail call void @llvm.memset.p0.i64(ptr nonnull align 1 %41, i8 0, i64 %42, i1 false)
  br label %43

43:                                               ; preds = %39, %35
  store ptr %.0, ptr %22, align 8, !tbaa !15
  store i32 %15, ptr %0, align 8, !tbaa !6
  br label %44

44:                                               ; preds = %43, %16
  %45 = phi ptr [ %.0, %43 ], [ %18, %16 ]
  %46 = sext i32 %4 to i64
  %47 = getelementptr inbounds i8, ptr %45, i64 %46
  %48 = load i8, ptr %47, align 1, !tbaa !16
  %49 = zext i8 %48 to i32
  %50 = and i32 %49, %8
  %51 = or i32 %50, %spec.select
  %52 = trunc nuw i32 %51 to i8
  store i8 %52, ptr %47, align 1, !tbaa !16
  %.pr = load i32, ptr %0, align 8, !tbaa !6
  %53 = icmp sgt i32 %.pr, 0
  br i1 %53, label %.lr.ph, label %.critedge

.lr.ph:                                           ; preds = %44
  %54 = getelementptr inbounds nuw i8, ptr %0, i64 8
  %55 = load ptr, ptr %54, align 8, !tbaa !15
  %invariant.gep = getelementptr i8, ptr %55, i64 -1
  br label %56

56:                                               ; preds = %.lr.ph, %61
  %57 = phi i32 [ %.pr, %.lr.ph ], [ %62, %61 ]
  %58 = zext nneg i32 %57 to i64
  %gep = getelementptr i8, ptr %invariant.gep, i64 %58
  %59 = load i8, ptr %gep, align 1, !tbaa !16
  %60 = icmp eq i8 %59, 0
  br i1 %60, label %61, label %.critedge

61:                                               ; preds = %56
  %62 = add nsw i32 %57, -1
  store i32 %62, ptr %0, align 8, !tbaa !6
  %63 = icmp sgt i32 %57, 1
  br i1 %63, label %56, label %.critedge, !llvm.loop !23

.critedge:                                        ; preds = %61, %56, %44, %20, %3, %34
  %.036 = phi i32 [ 0, %34 ], [ 0, %3 ], [ 1, %20 ], [ 1, %44 ], [ 1, %56 ], [ 1, %61 ]
  ret i32 %.036
}